target datalayout = "e-m:e-p270:32:32-p271:32:32-p272:64:64-i64:64-i128:128-f80:128-n8:16:32:64-S128"
target triple = "x86_64-pc-linux-gnu"

%struct.H5C_t = type { i8, ptr, ptr, i32, ptr, i64, i64, ptr, i8, ptr, i8, i8, i32, i64, [6 x i32], [6 x i64], i64, [6 x i64], i64, [6 x i64], [65536 x ptr], i32, i64, ptr, ptr, i64, ptr, ptr, i8, i8, i32, i64, [6 x i32], [6 x i64], ptr, i32, ptr, i8, i32, i32, i64, ptr, ptr, i32, i64, ptr, ptr, i32, i64, ptr, ptr, i8, i8, i64, i8, i8, i8, i8, i8, i8, %struct.H5C_auto_size_ctl_t, i32, [10 x i8], [11 x i32], i32, i32, i32, [10 x %struct.H5C_cache_entry_t], i64, i64, %struct.H5C_cache_image_ctl_t, i8, i8, i8, i8, i64, i64, i64, i64, i64, i64, i64, i32, ptr, ptr, i8, i8, [32 x i8] }
%struct.H5C_auto_size_ctl_t = type { i32, ptr, i8, i64, double, i64, i64, i64, i32, double, double, i8, i64, i32, double, double, i32, double, double, i8, i64, i32, i8, double }
%struct.H5C_cache_entry_t = type { ptr, i64, i64, ptr, i8, ptr, i8, i8, i8, i8, i32, i8, i8, i8, i8, i8, i32, ptr, i32, i32, i32, i32, i32, i8, i8, ptr, ptr, ptr, ptr, ptr, ptr, i8, i32, i8, i64, ptr, i64, i64, i32, i8, i32, i32, i8, ptr, ptr, ptr }
%struct.H5C_cache_image_ctl_t = type { i32, i8, i8, i32, i32 }
%struct.H5C_log_info_t = type { i8, i8, ptr, ptr }
%struct.H5C_log_class_t = type { ptr, ptr, ptr, ptr, ptr, ptr, ptr, ptr, ptr, ptr, ptr, ptr, ptr, ptr, ptr, ptr, ptr, ptr, ptr, ptr, ptr, ptr, ptr, ptr, ptr, ptr }

@.str = private unnamed_addr constant [100 x i8] c"generated/home/dtcxzyw/WorkSpace/Projects/compilers/llvm-opt-benchmark/bench/hdf5/hdf5/src/H5Clog.c\00", align 1
@H5E_CACHE_g = external global i64, align 8
@H5E_LOGGING_g = external global i64, align 8
@__func__.H5C_log_write_insert_entry_msg = private unnamed_addr constant [31 x i8] c"H5C_log_write_insert_entry_msg\00", align 1
@.str.19 = private unnamed_addr constant [38 x i8] c"log-specific insert entry call failed\00", align 1

; Function Attrs: nounwind uwtable
define i32 @H5C_log_write_insert_entry_msg(ptr noundef %0, i64 noundef %1, i32 noundef %2, i32 noundef %3, i64 noundef %4, i32 noundef %5) #0 {
  %7 = alloca ptr, align 8
  %8 = alloca i64, align 8
  %9 = alloca i32, align 4
  %10 = alloca i32, align 4
  %11 = alloca i64, align 8
  %12 = alloca i32, align 4
  %13 = alloca i32, align 4
  %14 = alloca i8, align 1
  store ptr %0, ptr %7, align 8
  store i64 %1, ptr %8, align 8
  store i32 %2, ptr %9, align 4
  store i32 %3, ptr %10, align 4
  store i64 %4, ptr %11, align 8
  store i32 %5, ptr %12, align 4
  store i32 0, ptr %13, align 4
  store i8 0, ptr %14, align 1
  %15 = load ptr, ptr %7, align 8
  %16 = getelementptr inbounds %struct.H5C_t, ptr %15, i32 0, i32 1
  %17 = load ptr, ptr %16, align 8
  %18 = getelementptr inbounds %struct.H5C_log_info_t, ptr %17, i32 0, i32 2
  %19 = load ptr, ptr %18, align 8
  %20 = getelementptr inbounds %struct.H5C_log_class_t, ptr %19, i32 0, i32 11
  %21 = load ptr, ptr %20, align 8
  %22 = icmp ne ptr %21, null
  br i1 %22, label %23, label %59

23:                                               ; preds = %6
  %24 = load ptr, ptr %7, align 8
  %25 = getelementptr inbounds %struct.H5C_t, ptr %24, i32 0, i32 1
  %26 = load ptr, ptr %25, align 8
  %27 = getelementptr inbounds %struct.H5C_log_info_t, ptr %26, i32 0, i32 2
  %28 = load ptr, ptr %27, align 8
  %29 = getelementptr inbounds %struct.H5C_log_class_t, ptr %28, i32 0, i32 11
  %30 = load ptr, ptr %29, align 8
  %31 = load ptr, ptr %7, align 8
  %32 = getelementptr inbounds %struct.H5C_t, ptr %31, i32 0, i32 1
  %33 = load ptr, ptr %32, align 8
  %34 = getelementptr inbounds %struct.H5C_log_info_t, ptr %33, i32 0, i32 3
  %35 = load ptr, ptr %34, align 8
  %36 = load i64, ptr %8, align 8
  %37 = load i32, ptr %9, align 4
  %38 = load i32, ptr %10, align 4
  %39 = load i64, ptr %11, align 8
  %40 = load i32, ptr %12, align 4
  %41 = call i32 %30(ptr noundef %35, i64 noundef %36, i32 noundef %37, i32 noundef %38, i64 noundef %39, i32 noundef %40)
  %42 = icmp slt i32 %41, 0
  br i1 %42, label %43, label %58

43:                                               ; preds = %23
  br label %44

44:                                               ; preds = %43
  br label %45

45:                                               ; preds = %44
  br label %46

46:                                               ; preds = %45
  %47 = load i64, ptr @H5E_CACHE_g, align 8
  %48 = load i64, ptr @H5E_LOGGING_g, align 8
  %49 = call i32 (ptr, ptr, i32, i64, i64, ptr, ...) @H5E_printf_stack(ptr noundef @.str, ptr noundef @__func__.H5C_log_write_insert_entry_msg, i32 noundef 441, i64 noundef %47, i64 noundef %48, ptr noundef @.str.19)
  br label %50

50:                                               ; preds = %46
  store i8 1, ptr %14, align 1
  %51 = load i8, ptr %14, align 1
  %52 = trunc i8 %51 to i1
  %53 = zext i1 %52 to i8
  store i8 %53, ptr %14, align 1
  br label %54

54:                                               ; preds = %50
  br label %55

55:                                               ; preds = %54
  store i32 -1, ptr %13, align 4
  br label %60

56:                                               ; No predecessors!
  br label %57

57:                                               ; preds = %56
  br label %58

58:                                               ; preds = %57, %23
  br label %59

59:                                               ; preds = %58, %6
  br label %60

60:                                               ; preds = %59, %55
  %61 = load i32, ptr %13, align 4
  ret i32 %61
}