; Function Attrs: nounwind uwtable
define range(i32 -1, 1) i32 @H5C_log_write_insert_entry_msg(ptr nocapture noundef readonly %0, i64 noundef %1, i32 noundef %2, i32 noundef %3, i64 noundef %4, i32 noundef %5) local_unnamed_addr #0 {
  %7 = getelementptr inbounds i8, ptr %0, i64 8
  %8 = load ptr, ptr %7, align 8
  %9 = getelementptr inbounds i8, ptr %8, i64 8
  %10 = load ptr, ptr %9, align 8
  %11 = getelementptr inbounds i8, ptr %10, i64 88
  %12 = load ptr, ptr %11, align 8
  %.not = icmp eq ptr %12, null
  br i1 %.not, label %22, label %13

13:                                               ; preds = %6
  %14 = getelementptr inbounds i8, ptr %8, i64 16
  %15 = load ptr, ptr %14, align 8
  %16 = tail call i32 %12(ptr noundef %15, i64 noundef %1, i32 noundef %2, i32 noundef %3, i64 noundef %4, i32 noundef %5) #3
  %17 = icmp slt i32 %16, 0
  br i1 %17, label %18, label %22

18:                                               ; preds = %13
  %19 = load i64, ptr @H5E_CACHE_g, align 8
  %20 = load i64, ptr @H5E_LOGGING_g, align 8
  %21 = tail call i32 (ptr, ptr, i32, i64, i64, ptr, ...) @H5E_printf_stack(ptr noundef nonnull @.str, ptr noundef nonnull @__func__.H5C_log_write_insert_entry_msg, i32 noundef 441, i64 noundef %19, i64 noundef %20, ptr noundef nonnull @.str.19) #3
  br label %22

22:                                               ; preds = %6, %13, %18
  %.0 = phi i32 [ -1, %18 ], [ 0, %13 ], [ 0, %6 ]
  ret i32 %.0
}